; Function Attrs: mustprogress uwtable
define void @_ZN8WasmEdge4Host4WASI6VINode6stdOutE15__wasi_rights_tS3_(ptr dead_on_unwind noalias writable sret(%"class.std::shared_ptr") align 8 %0, i64 noundef %1, i64 noundef %2) local_unnamed_addr #2 align 2 personality ptr @__gxx_personality_v0 {
  %4 = alloca %"class.std::allocator.64", align 1
  %5 = alloca i64, align 8
  %6 = alloca i64, align 8
  %7 = alloca %"class.WasmEdge::Host::WASI::INode", align 8
  store i64 %1, ptr %5, align 8
  store i64 %2, ptr %6, align 8
  call void @_ZN8WasmEdge4Host4WASI5INode6stdOutEv(ptr dead_on_unwind nonnull writable sret(%"class.WasmEdge::Host::WASI::INode") align 8 %7) #14
  call void @llvm.lifetime.start.p0(i64 1, ptr nonnull %4)
  invoke void @_ZNSt12__shared_ptrIN8WasmEdge4Host4WASI6VINodeELN9__gnu_cxx12_Lock_policyE2EEC2ISaIvEJNS2_5INodeER15__wasi_rights_tSB_EEESt20_Sp_alloc_shared_tagIT_EDpOT0_(ptr noundef nonnull align 8 dereferenceable(16) %0, ptr nonnull %4, ptr noundef nonnull align 8 dereferenceable(200) %7, ptr noundef nonnull align 8 dereferenceable(8) %5, ptr noundef nonnull align 8 dereferenceable(8) %6)
          to label %8 unwind label %22

8:                                                ; preds = %3
  call void @llvm.lifetime.end.p0(i64 1, ptr nonnull %4)
  %9 = getelementptr inbounds i8, ptr %7, i64 160
  call void @_ZN8WasmEdge4Host4WASI9DirHolder5resetEv(ptr noundef nonnull align 8 dereferenceable(40) %9) #14
  %10 = getelementptr inbounds i8, ptr %7, i64 176
  %11 = load ptr, ptr %10, align 8
  %.not.i.i.i.i.i = icmp eq ptr %11, null
  br i1 %.not.i.i.i.i.i, label %_ZN8WasmEdge4Host4WASI9DirHolderD2Ev.exit.i, label %12

12:                                               ; preds = %8
  %13 = getelementptr inbounds i8, ptr %7, i64 192
  %14 = load ptr, ptr %13, align 8
  %15 = ptrtoint ptr %14 to i64
  %16 = ptrtoint ptr %11 to i64
  %17 = sub i64 %15, %16
  call void @_ZdlPvm(ptr noundef nonnull %11, i64 noundef %17) #15
  br label %_ZN8WasmEdge4Host4WASI9DirHolderD2Ev.exit.i

_ZN8WasmEdge4Host4WASI9DirHolderD2Ev.exit.i:      ; preds = %12, %8
  %18 = getelementptr inbounds i8, ptr %7, i64 4
  %19 = load i8, ptr %18, align 4
  %20 = trunc i8 %19 to i1
  br i1 %20, label %21, label %_ZN8WasmEdge4Host4WASI5INodeD2Ev.exit

21:                                               ; preds = %_ZN8WasmEdge4Host4WASI9DirHolderD2Ev.exit.i
  call void @_ZN8WasmEdge4Host4WASI8FdHolder5resetEv(ptr noundef nonnull align 4 dereferenceable(5) %7) #14
  br label %_ZN8WasmEdge4Host4WASI5INodeD2Ev.exit

_ZN8WasmEdge4Host4WASI5INodeD2Ev.exit:            ; preds = %_ZN8WasmEdge4Host4WASI9DirHolderD2Ev.exit.i, %21
  ret void

22:                                               ; preds = %3
  %23 = landingpad { ptr, i32 }
          cleanup
  call void @_ZN8WasmEdge4Host4WASI5INodeD2Ev(ptr noundef nonnull align 8 dereferenceable(200) %7) #14
  resume { ptr, i32 } %23
}